target datalayout = "e-m:e-p270:32:32-p271:32:32-p272:64:64-i64:64-i128:128-f80:128-n8:16:32:64-S128"
target triple = "x86_64-pc-linux-gnu"

%struct.lua_TValue = type { %union.Value, [1 x i32], i32 }
%union.Value = type { ptr }
%struct.lua_State = type { i8, i8, i8, i8, i8, i8, i8, ptr, ptr, ptr, ptr, ptr, ptr, ptr, ptr, i32, i32, i16, i16, i32, ptr, ptr, ptr, ptr, ptr }
%struct.CallInfo = type { ptr, ptr, ptr, ptr, i32, i32 }
%struct.Closure = type { i8, i8, i8, i8, i8, i8, i8, ptr, ptr, %union.anon.1 }
%union.anon.1 = type { %struct.anon }
%struct.anon = type { ptr, ptr, ptr, [1 x %struct.lua_TValue] }
%struct.anon.2 = type { ptr, [1 x %struct.lua_TValue] }
%struct.global_State = type { %struct.stringtable, ptr, ptr, i8, i8, ptr, ptr, ptr, i64, i64, i32, i32, i32, [40 x ptr], [40 x ptr], ptr, ptr, ptr, [256 x i64], ptr, %struct.UpVal, [11 x ptr], [11 x ptr], [21 x ptr], %struct.lua_TValue, %struct.lua_TValue, i32, ptr, i64, [4 x i64], %struct.lua_Callbacks, %struct.lua_ExecutionCallbacks, [128 x ptr], [128 x ptr], [128 x ptr], %struct.GCStats }
%struct.stringtable = type { ptr, i32, i32 }
%struct.UpVal = type { i8, i8, i8, i8, ptr, %union.anon.3 }
%union.anon.3 = type { %struct.anon.4 }
%struct.anon.4 = type { ptr, ptr, ptr }
%struct.lua_Callbacks = type { ptr, ptr, ptr, ptr, ptr, ptr, ptr, ptr, ptr }
%struct.lua_ExecutionCallbacks = type { ptr, ptr, ptr, ptr, ptr, ptr, ptr }
%struct.GCStats = type { [32 x i32], i32, i32, i64, i64, i64, double, double, double }
%struct.GCheader = type { i8, i8, i8 }

; Function Attrs: mustprogress uwtable
define dso_local noundef ptr @_ZN4Luau7CodeGen17executeDUPCLOSUREEP9lua_StatePKjP10lua_TValueS6_(ptr noundef %0, ptr noundef %1, ptr noundef %2, ptr noundef %3) #2 {
  %5 = alloca ptr, align 8
  %6 = alloca ptr, align 8
  %7 = alloca ptr, align 8
  %8 = alloca ptr, align 8
  %9 = alloca ptr, align 8
  %10 = alloca i32, align 4
  %11 = alloca ptr, align 8
  %12 = alloca ptr, align 8
  %13 = alloca ptr, align 8
  %14 = alloca ptr, align 8
  %15 = alloca ptr, align 8
  %16 = alloca i32, align 4
  %17 = alloca i32, align 4
  %18 = alloca ptr, align 8
  %19 = alloca ptr, align 8
  %20 = alloca ptr, align 8
  %21 = alloca ptr, align 8
  store ptr %0, ptr %5, align 8
  store ptr %1, ptr %6, align 8
  store ptr %2, ptr %7, align 8
  store ptr %3, ptr %8, align 8
  %22 = load ptr, ptr %5, align 8
  %23 = getelementptr inbounds %struct.lua_State, ptr %22, i32 0, i32 10
  %24 = load ptr, ptr %23, align 8
  %25 = getelementptr inbounds %struct.CallInfo, ptr %24, i32 0, i32 1
  %26 = load ptr, ptr %25, align 8
  %27 = getelementptr inbounds %struct.lua_TValue, ptr %26, i32 0, i32 0
  %28 = load ptr, ptr %27, align 8
  store ptr %28, ptr %9, align 8
  %29 = load ptr, ptr %6, align 8
  %30 = getelementptr inbounds i32, ptr %29, i32 1
  store ptr %30, ptr %6, align 8
  %31 = load i32, ptr %29, align 4
  store i32 %31, ptr %10, align 4
  %32 = load ptr, ptr %7, align 8
  %33 = load i32, ptr %10, align 4
  %34 = lshr i32 %33, 8
  %35 = and i32 %34, 255
  %36 = zext i32 %35 to i64
  %37 = getelementptr inbounds %struct.lua_TValue, ptr %32, i64 %36
  store ptr %37, ptr %11, align 8
  %38 = load ptr, ptr %8, align 8
  %39 = load i32, ptr %10, align 4
  %40 = ashr i32 %39, 16
  %41 = sext i32 %40 to i64
  %42 = getelementptr inbounds %struct.lua_TValue, ptr %38, i64 %41
  store ptr %42, ptr %12, align 8
  %43 = load ptr, ptr %12, align 8
  %44 = getelementptr inbounds %struct.lua_TValue, ptr %43, i32 0, i32 0
  %45 = load ptr, ptr %44, align 8
  store ptr %45, ptr %13, align 8
  %46 = load ptr, ptr %6, align 8
  %47 = load ptr, ptr %5, align 8
  %48 = getelementptr inbounds %struct.lua_State, ptr %47, i32 0, i32 10
  %49 = load ptr, ptr %48, align 8
  %50 = getelementptr inbounds %struct.CallInfo, ptr %49, i32 0, i32 3
  store ptr %46, ptr %50, align 8
  %51 = load ptr, ptr %13, align 8
  %52 = getelementptr inbounds %struct.Closure, ptr %51, i32 0, i32 8
  %53 = load ptr, ptr %52, align 8
  %54 = load ptr, ptr %9, align 8
  %55 = getelementptr inbounds %struct.Closure, ptr %54, i32 0, i32 8
  %56 = load ptr, ptr %55, align 8
  %57 = icmp eq ptr %53, %56
  br i1 %57, label %58, label %60

58:                                               ; preds = %4
  %59 = load ptr, ptr %13, align 8
  br label %74

60:                                               ; preds = %4
  %61 = load ptr, ptr %5, align 8
  %62 = load ptr, ptr %13, align 8
  %63 = getelementptr inbounds %struct.Closure, ptr %62, i32 0, i32 4
  %64 = load i8, ptr %63, align 4
  %65 = zext i8 %64 to i32
  %66 = load ptr, ptr %9, align 8
  %67 = getelementptr inbounds %struct.Closure, ptr %66, i32 0, i32 8
  %68 = load ptr, ptr %67, align 8
  %69 = load ptr, ptr %13, align 8
  %70 = getelementptr inbounds %struct.Closure, ptr %69, i32 0, i32 9
  %71 = getelementptr inbounds %struct.anon.2, ptr %70, i32 0, i32 0
  %72 = load ptr, ptr %71, align 8
  %73 = call noundef ptr @_Z16luaF_newLclosureP9lua_StateiP5TableP5Proto(ptr noundef %61, i32 noundef %65, ptr noundef %68, ptr noundef %72)
  br label %74

74:                                               ; preds = %60, %58
  %75 = phi ptr [ %59, %58 ], [ %73, %60 ]
  store ptr %75, ptr %14, align 8
  %76 = load ptr, ptr %11, align 8
  store ptr %76, ptr %15, align 8
  %77 = load ptr, ptr %14, align 8
  %78 = load ptr, ptr %15, align 8
  %79 = getelementptr inbounds %struct.lua_TValue, ptr %78, i32 0, i32 0
  store ptr %77, ptr %79, align 8
  %80 = load ptr, ptr %15, align 8
  %81 = getelementptr inbounds %struct.lua_TValue, ptr %80, i32 0, i32 2
  store i32 7, ptr %81, align 4
  store i32 0, ptr %16, align 4
  br label %82

82:                                               ; preds = %200, %74
  %83 = load i32, ptr %16, align 4
  %84 = load ptr, ptr %13, align 8
  %85 = getelementptr inbounds %struct.Closure, ptr %84, i32 0, i32 4
  %86 = load i8, ptr %85, align 4
  %87 = zext i8 %86 to i32
  %88 = icmp slt i32 %83, %87
  br i1 %88, label %89, label %203

89:                                               ; preds = %82
  %90 = load ptr, ptr %6, align 8
  %91 = load i32, ptr %16, align 4
  %92 = sext i32 %91 to i64
  %93 = getelementptr inbounds i32, ptr %90, i64 %92
  %94 = load i32, ptr %93, align 4
  store i32 %94, ptr %17, align 4
  %95 = load i32, ptr %17, align 4
  %96 = lshr i32 %95, 8
  %97 = and i32 %96, 255
  %98 = icmp eq i32 %97, 0
  br i1 %98, label %99, label %106

99:                                               ; preds = %89
  %100 = load ptr, ptr %7, align 8
  %101 = load i32, ptr %17, align 4
  %102 = lshr i32 %101, 16
  %103 = and i32 %102, 255
  %104 = zext i32 %103 to i64
  %105 = getelementptr inbounds %struct.lua_TValue, ptr %100, i64 %104
  br label %115

106:                                              ; preds = %89
  %107 = load ptr, ptr %9, align 8
  %108 = getelementptr inbounds %struct.Closure, ptr %107, i32 0, i32 9
  %109 = getelementptr inbounds %struct.anon.2, ptr %108, i32 0, i32 1
  %110 = load i32, ptr %17, align 4
  %111 = lshr i32 %110, 16
  %112 = and i32 %111, 255
  %113 = zext i32 %112 to i64
  %114 = getelementptr inbounds [1 x %struct.lua_TValue], ptr %109, i64 0, i64 %113
  br label %115

115:                                              ; preds = %106, %99
  %116 = phi ptr [ %105, %99 ], [ %114, %106 ]
  store ptr %116, ptr %18, align 8
  %117 = load ptr, ptr %14, align 8
  %118 = load ptr, ptr %13, align 8
  %119 = icmp eq ptr %117, %118
  br i1 %119, label %120, label %131

120:                                              ; preds = %115
  %121 = load ptr, ptr %14, align 8
  %122 = getelementptr inbounds %struct.Closure, ptr %121, i32 0, i32 9
  %123 = getelementptr inbounds %struct.anon.2, ptr %122, i32 0, i32 1
  %124 = load i32, ptr %16, align 4
  %125 = sext i32 %124 to i64
  %126 = getelementptr inbounds [1 x %struct.lua_TValue], ptr %123, i64 0, i64 %125
  %127 = load ptr, ptr %18, align 8
  %128 = call noundef i32 @_Z16luaO_rawequalObjPK10lua_TValueS1_(ptr noundef %126, ptr noundef %127)
  %129 = icmp ne i32 %128, 0
  br i1 %129, label %130, label %131

130:                                              ; preds = %120
  br label %200

131:                                              ; preds = %120, %115
  %132 = load ptr, ptr %14, align 8
  %133 = load ptr, ptr %13, align 8
  %134 = icmp eq ptr %132, %133
  br i1 %134, label %135, label %161

135:                                              ; preds = %131
  %136 = load ptr, ptr %13, align 8
  %137 = getelementptr inbounds %struct.Closure, ptr %136, i32 0, i32 6
  %138 = load i8, ptr %137, align 2
  %139 = zext i8 %138 to i32
  %140 = icmp eq i32 %139, 0
  br i1 %140, label %141, label %161

141:                                              ; preds = %135
  %142 = load ptr, ptr %5, align 8
  %143 = load ptr, ptr %13, align 8
  %144 = getelementptr inbounds %struct.Closure, ptr %143, i32 0, i32 4
  %145 = load i8, ptr %144, align 4
  %146 = zext i8 %145 to i32
  %147 = load ptr, ptr %9, align 8
  %148 = getelementptr inbounds %struct.Closure, ptr %147, i32 0, i32 8
  %149 = load ptr, ptr %148, align 8
  %150 = load ptr, ptr %13, align 8
  %151 = getelementptr inbounds %struct.Closure, ptr %150, i32 0, i32 9
  %152 = getelementptr inbounds %struct.anon.2, ptr %151, i32 0, i32 0
  %153 = load ptr, ptr %152, align 8
  %154 = call noundef ptr @_Z16luaF_newLclosureP9lua_StateiP5TableP5Proto(ptr noundef %142, i32 noundef %146, ptr noundef %149, ptr noundef %153)
  store ptr %154, ptr %14, align 8
  %155 = load ptr, ptr %11, align 8
  store ptr %155, ptr %19, align 8
  %156 = load ptr, ptr %14, align 8
  %157 = load ptr, ptr %19, align 8
  %158 = getelementptr inbounds %struct.lua_TValue, ptr %157, i32 0, i32 0
  store ptr %156, ptr %158, align 8
  %159 = load ptr, ptr %19, align 8
  %160 = getelementptr inbounds %struct.lua_TValue, ptr %159, i32 0, i32 2
  store i32 7, ptr %160, align 4
  store i32 -1, ptr %16, align 4
  br label %200

161:                                              ; preds = %135, %131
  %162 = load ptr, ptr %18, align 8
  store ptr %162, ptr %20, align 8
  %163 = load ptr, ptr %14, align 8
  %164 = getelementptr inbounds %struct.Closure, ptr %163, i32 0, i32 9
  %165 = getelementptr inbounds %struct.anon.2, ptr %164, i32 0, i32 1
  %166 = load i32, ptr %16, align 4
  %167 = sext i32 %166 to i64
  %168 = getelementptr inbounds [1 x %struct.lua_TValue], ptr %165, i64 0, i64 %167
  store ptr %168, ptr %21, align 8
  %169 = load ptr, ptr %20, align 8
  %170 = load ptr, ptr %21, align 8
  call void @llvm.memcpy.p0.p0.i64(ptr align 8 %170, ptr align 8 %169, i64 16, i1 false)
  %171 = load ptr, ptr %18, align 8
  %172 = getelementptr inbounds %struct.lua_TValue, ptr %171, i32 0, i32 2
  %173 = load i32, ptr %172, align 4
  %174 = icmp sge i32 %173, 5
  br i1 %174, label %175, label %199

175:                                              ; preds = %161
  %176 = load ptr, ptr %14, align 8
  %177 = getelementptr inbounds %struct.Closure, ptr %176, i64 0
  %178 = getelementptr inbounds %struct.GCheader, ptr %177, i32 0, i32 1
  %179 = load i8, ptr %178, align 1
  %180 = zext i8 %179 to i32
  %181 = and i32 %180, 4
  %182 = icmp ne i32 %181, 0
  br i1 %182, label %183, label %199

183:                                              ; preds = %175
  %184 = load ptr, ptr %18, align 8
  %185 = getelementptr inbounds %struct.lua_TValue, ptr %184, i32 0, i32 0
  %186 = load ptr, ptr %185, align 8
  %187 = getelementptr inbounds %struct.GCheader, ptr %186, i32 0, i32 1
  %188 = load i8, ptr %187, align 1
  %189 = zext i8 %188 to i32
  %190 = and i32 %189, 3
  %191 = icmp ne i32 %190, 0
  br i1 %191, label %192, label %199

192:                                              ; preds = %183
  %193 = load ptr, ptr %5, align 8
  %194 = load ptr, ptr %14, align 8
  %195 = getelementptr inbounds %struct.Closure, ptr %194, i64 0
  %196 = load ptr, ptr %18, align 8
  %197 = getelementptr inbounds %struct.lua_TValue, ptr %196, i32 0, i32 0
  %198 = load ptr, ptr %197, align 8
  call void @_Z13luaC_barrierfP9lua_StateP8GCObjectS2_(ptr noundef %193, ptr noundef %195, ptr noundef %198)
  br label %199

199:                                              ; preds = %192, %183, %175, %161
  br label %200

200:                                              ; preds = %199, %141, %130
  %201 = load i32, ptr %16, align 4
  %202 = add nsw i32 %201, 1
  store i32 %202, ptr %16, align 4
  br label %82, !llvm.loop !18

203:                                              ; preds = %82
  %204 = load ptr, ptr %14, align 8
  %205 = getelementptr inbounds %struct.Closure, ptr %204, i32 0, i32 6
  store i8 0, ptr %205, align 2
  %206 = load ptr, ptr %13, align 8
  %207 = load ptr, ptr %14, align 8
  %208 = icmp ne ptr %206, %207
  br i1 %208, label %209, label %234

209:                                              ; preds = %203
  %210 = load ptr, ptr %6, align 8
  %211 = load ptr, ptr %5, align 8
  %212 = getelementptr inbounds %struct.lua_State, ptr %211, i32 0, i32 10
  %213 = load ptr, ptr %212, align 8
  %214 = getelementptr inbounds %struct.CallInfo, ptr %213, i32 0, i32 3
  store ptr %210, ptr %214, align 8
  %215 = load ptr, ptr %5, align 8
  %216 = getelementptr inbounds %struct.lua_State, ptr %215, i32 0, i32 9
  %217 = load ptr, ptr %216, align 8
  %218 = getelementptr inbounds %struct.global_State, ptr %217, i32 0, i32 9
  %219 = load i64, ptr %218, align 8
  %220 = load ptr, ptr %5, align 8
  %221 = getelementptr inbounds %struct.lua_State, ptr %220, i32 0, i32 9
  %222 = load ptr, ptr %221, align 8
  %223 = getelementptr inbounds %struct.global_State, ptr %222, i32 0, i32 8
  %224 = load i64, ptr %223, align 8
  %225 = icmp uge i64 %219, %224
  br i1 %225, label %226, label %229

226:                                              ; preds = %209
  %227 = load ptr, ptr %5, align 8
  %228 = call noundef i64 @_Z9luaC_stepP9lua_Stateb(ptr noundef %227, i1 noundef zeroext true)
  br label %230

229:                                              ; preds = %209
  br label %230

230:                                              ; preds = %229, %226
  %231 = load ptr, ptr %5, align 8
  %232 = getelementptr inbounds %struct.lua_State, ptr %231, i32 0, i32 8
  %233 = load ptr, ptr %232, align 8
  store ptr %233, ptr %7, align 8
  br label %234

234:                                              ; preds = %230, %203
  %235 = load ptr, ptr %13, align 8
  %236 = getelementptr inbounds %struct.Closure, ptr %235, i32 0, i32 4
  %237 = load i8, ptr %236, align 4
  %238 = zext i8 %237 to i32
  %239 = load ptr, ptr %6, align 8
  %240 = sext i32 %238 to i64
  %241 = getelementptr inbounds i32, ptr %239, i64 %240
  store ptr %241, ptr %6, align 8
  %242 = load ptr, ptr %6, align 8
  ret ptr %242
}