; Function Attrs: mustprogress uwtable
define dso_local noundef nonnull ptr @_ZN4Luau7CodeGen17executeDUPCLOSUREEP9lua_StatePKjP10lua_TValueS6_(ptr noundef %0, ptr noundef %1, ptr noundef %2, ptr nocapture noundef readonly %3) local_unnamed_addr #2 {
  %5 = getelementptr inbounds i8, ptr %0, i64 32
  %6 = load ptr, ptr %5, align 8
  %7 = getelementptr inbounds i8, ptr %6, i64 8
  %8 = load ptr, ptr %7, align 8
  %9 = load ptr, ptr %8, align 8
  %10 = getelementptr inbounds i8, ptr %1, i64 4
  %11 = load i32, ptr %1, align 4
  %12 = lshr i32 %11, 8
  %13 = and i32 %12, 255
  %14 = zext nneg i32 %13 to i64
  %15 = getelementptr inbounds %struct.lua_TValue, ptr %2, i64 %14
  %16 = ashr i32 %11, 16
  %17 = sext i32 %16 to i64
  %18 = getelementptr inbounds %struct.lua_TValue, ptr %3, i64 %17
  %19 = load ptr, ptr %18, align 8
  %20 = getelementptr inbounds i8, ptr %6, i64 24
  store ptr %10, ptr %20, align 8
  %21 = getelementptr inbounds i8, ptr %19, i64 16
  %22 = load ptr, ptr %21, align 8
  %23 = getelementptr inbounds i8, ptr %9, i64 16
  %24 = load ptr, ptr %23, align 8
  %25 = icmp eq ptr %22, %24
  br i1 %25, label %33, label %26

26:                                               ; preds = %4
  %27 = getelementptr inbounds i8, ptr %19, i64 4
  %28 = load i8, ptr %27, align 4
  %29 = zext i8 %28 to i32
  %30 = getelementptr inbounds i8, ptr %19, i64 24
  %31 = load ptr, ptr %30, align 8
  %32 = tail call noundef ptr @_Z16luaF_newLclosureP9lua_StateiP5TableP5Proto(ptr noundef nonnull %0, i32 noundef %29, ptr noundef %24, ptr noundef %31)
  br label %33

33:                                               ; preds = %4, %26
  %34 = phi ptr [ %32, %26 ], [ %19, %4 ]
  store ptr %34, ptr %15, align 8
  %35 = getelementptr inbounds i8, ptr %15, i64 12
  store i32 7, ptr %35, align 4
  %36 = getelementptr inbounds i8, ptr %19, i64 4
  %37 = load i8, ptr %36, align 4
  %.not79 = icmp eq i8 %37, 0
  br i1 %.not79, label %._crit_edge, label %.lr.ph

.lr.ph:                                           ; preds = %33
  %38 = getelementptr inbounds i8, ptr %9, i64 32
  %39 = getelementptr inbounds i8, ptr %19, i64 6
  %40 = getelementptr inbounds i8, ptr %19, i64 24
  br label %41

41:                                               ; preds = %.lr.ph, %82
  %.077 = phi ptr [ %34, %.lr.ph ], [ %.1, %82 ]
  %.06876 = phi i32 [ 0, %.lr.ph ], [ %83, %82 ]
  %42 = sext i32 %.06876 to i64
  %43 = getelementptr inbounds i32, ptr %10, i64 %42
  %44 = load i32, ptr %43, align 4
  %45 = and i32 %44, 65280
  %46 = icmp eq i32 %45, 0
  %47 = lshr i32 %44, 16
  %48 = and i32 %47, 255
  %49 = zext nneg i32 %48 to i64
  %50 = getelementptr inbounds %struct.lua_TValue, ptr %2, i64 %49
  %51 = getelementptr inbounds [1 x %struct.lua_TValue], ptr %38, i64 0, i64 %49
  %52 = select i1 %46, ptr %50, ptr %51
  %53 = icmp eq ptr %.077, %19
  br i1 %53, label %54, label %.critedge

54:                                               ; preds = %41
  %55 = getelementptr inbounds i8, ptr %.077, i64 32
  %56 = getelementptr inbounds [1 x %struct.lua_TValue], ptr %55, i64 0, i64 %42
  %57 = tail call noundef i32 @_Z16luaO_rawequalObjPK10lua_TValueS1_(ptr noundef nonnull %56, ptr noundef %52)
  %.not73 = icmp eq i32 %57, 0
  br i1 %.not73, label %58, label %82

58:                                               ; preds = %54
  %59 = load i8, ptr %39, align 2
  %60 = icmp eq i8 %59, 0
  br i1 %60, label %61, label %.critedge

61:                                               ; preds = %58
  %62 = load i8, ptr %36, align 4
  %63 = zext i8 %62 to i32
  %64 = load ptr, ptr %23, align 8
  %65 = load ptr, ptr %40, align 8
  %66 = tail call noundef ptr @_Z16luaF_newLclosureP9lua_StateiP5TableP5Proto(ptr noundef %0, i32 noundef %63, ptr noundef %64, ptr noundef %65)
  store ptr %66, ptr %15, align 8
  store i32 7, ptr %35, align 4
  br label %82

.critedge:                                        ; preds = %41, %58
  %67 = getelementptr inbounds i8, ptr %.077, i64 32
  %68 = getelementptr inbounds [1 x %struct.lua_TValue], ptr %67, i64 0, i64 %42
  tail call void @llvm.memcpy.p0.p0.i64(ptr noundef nonnull align 8 dereferenceable(16) %68, ptr noundef nonnull align 8 dereferenceable(16) %52, i64 16, i1 false)
  %69 = getelementptr inbounds i8, ptr %52, i64 12
  %70 = load i32, ptr %69, align 4
  %71 = icmp sgt i32 %70, 4
  br i1 %71, label %72, label %82

72:                                               ; preds = %.critedge
  %73 = getelementptr inbounds i8, ptr %.077, i64 1
  %74 = load i8, ptr %73, align 1
  %75 = and i8 %74, 4
  %.not74 = icmp eq i8 %75, 0
  br i1 %.not74, label %82, label %76

76:                                               ; preds = %72
  %77 = load ptr, ptr %52, align 8
  %78 = getelementptr inbounds i8, ptr %77, i64 1
  %79 = load i8, ptr %78, align 1
  %80 = and i8 %79, 3
  %.not75 = icmp eq i8 %80, 0
  br i1 %.not75, label %82, label %81

81:                                               ; preds = %76
  tail call void @_Z13luaC_barrierfP9lua_StateP8GCObjectS2_(ptr noundef %0, ptr noundef nonnull %.077, ptr noundef nonnull %77)
  br label %82

82:                                               ; preds = %.critedge, %72, %76, %81, %54, %61
  %.169 = phi i32 [ %.06876, %54 ], [ -1, %61 ], [ %.06876, %81 ], [ %.06876, %76 ], [ %.06876, %72 ], [ %.06876, %.critedge ]
  %.1 = phi ptr [ %.077, %54 ], [ %66, %61 ], [ %.077, %81 ], [ %.077, %76 ], [ %.077, %72 ], [ %.077, %.critedge ]
  %83 = add nsw i32 %.169, 1
  %84 = load i8, ptr %36, align 4
  %85 = zext i8 %84 to i32
  %86 = icmp slt i32 %83, %85
  br i1 %86, label %41, label %._crit_edge, !llvm.loop !18

._crit_edge:                                      ; preds = %82, %33
  %.0.lcssa = phi ptr [ %34, %33 ], [ %.1, %82 ]
  %87 = getelementptr inbounds i8, ptr %.0.lcssa, i64 6
  store i8 0, ptr %87, align 2
  %.not = icmp eq ptr %19, %.0.lcssa
  br i1 %.not, label %99, label %88

88:                                               ; preds = %._crit_edge
  %89 = load ptr, ptr %5, align 8
  %90 = getelementptr inbounds i8, ptr %89, i64 24
  store ptr %10, ptr %90, align 8
  %91 = getelementptr inbounds i8, ptr %0, i64 24
  %92 = load ptr, ptr %91, align 8
  %93 = getelementptr inbounds i8, ptr %92, i64 72
  %94 = load i64, ptr %93, align 8
  %95 = getelementptr inbounds i8, ptr %92, i64 64
  %96 = load i64, ptr %95, align 8
  %.not72 = icmp ult i64 %94, %96
  br i1 %.not72, label %99, label %97

97:                                               ; preds = %88
  %98 = tail call noundef i64 @_Z9luaC_stepP9lua_Stateb(ptr noundef nonnull %0, i1 noundef zeroext true)
  br label %99

99:                                               ; preds = %97, %88, %._crit_edge
  %100 = load i8, ptr %36, align 4
  %101 = zext i8 %100 to i64
  %102 = getelementptr inbounds i32, ptr %10, i64 %101
  ret ptr %102
}